target datalayout = "e-m:e-p270:32:32-p271:32:32-p272:64:64-i64:64-i128:128-f80:128-n8:16:32:64-S128"
target triple = "x86_64-pc-linux-gnu"

%"class.grpc_core::ChannelArgs" = type { %"class.grpc_core::AVL" }
%"class.grpc_core::AVL" = type { %"class.grpc_core::RefCountedPtr" }
%"class.grpc_core::RefCountedPtr" = type { ptr }
%class.anon.58 = type { ptr }

@_ZN9grpc_core11ChannelArgsC1EOS0_ = unnamed_addr alias void (ptr, ptr), ptr @_ZN9grpc_core11ChannelArgsC2EOS0_

; Function Attrs: mustprogress nounwind uwtable
define linkonce_odr noundef ptr @_ZNK9grpc_core13RefCountedPtrINS_3AVLINS_21RefCountedStringValueENS_11ChannelArgs5ValueEE4NodeEE3getEv(ptr noundef nonnull align 8 dereferenceable(8) %0) #6 comdat align 2 {
  %2 = alloca ptr, align 8
  store ptr %0, ptr %2, align 8, !tbaa !173
  %3 = load ptr, ptr %2, align 8
  %4 = getelementptr inbounds nuw %"class.grpc_core::RefCountedPtr", ptr %3, i32 0, i32 0
  %5 = load ptr, ptr %4, align 8, !tbaa !175
  ret ptr %5
}

; Function Attrs: mustprogress uwtable
define internal void @"_ZNK9grpc_core3AVLINS_21RefCountedStringValueENS_11ChannelArgs5ValueEE7ForEachIZNKS2_25FuzzingReferenceUnionWithES2_E3$_0EEvOT_"(ptr noundef nonnull align 8 dereferenceable(8) %0, ptr noundef nonnull align 8 dereferenceable(8) %1) #5 align 2 {
  %3 = alloca ptr, align 8
  %4 = alloca ptr, align 8
  store ptr %0, ptr %3, align 8, !tbaa !18
  store ptr %1, ptr %4, align 8, !tbaa !3
  %5 = load ptr, ptr %3, align 8
  %6 = getelementptr inbounds nuw %"class.grpc_core::AVL", ptr %5, i32 0, i32 0
  %7 = call noundef ptr @_ZNK9grpc_core13RefCountedPtrINS_3AVLINS_21RefCountedStringValueENS_11ChannelArgs5ValueEE4NodeEE3getEv(ptr noundef nonnull align 8 dereferenceable(8) %6)
  %8 = load ptr, ptr %4, align 8, !tbaa !3
  call void @"_ZN9grpc_core3AVLINS_21RefCountedStringValueENS_11ChannelArgs5ValueEE11ForEachImplIZNKS2_25FuzzingReferenceUnionWithES2_E3$_0EEvPKNS4_4NodeEOT_"(ptr noundef %7, ptr noundef nonnull align 8 dereferenceable(8) %8)
  ret void
}

; Function Attrs: mustprogress uwtable
define void @_ZNK9grpc_core11ChannelArgs25FuzzingReferenceUnionWithES0_(ptr dead_on_unwind noalias writable sret(%"class.grpc_core::ChannelArgs") align 8 %0, ptr noundef nonnull align 8 dereferenceable(8) %1, ptr noundef %2) #5 align 2 {
  %4 = alloca ptr, align 8
  %5 = alloca ptr, align 8
  %6 = alloca ptr, align 8
  %7 = alloca %class.anon.58, align 8
  store ptr %0, ptr %4, align 8
  store ptr %1, ptr %5, align 8, !tbaa !16
  store ptr %2, ptr %6, align 8, !tbaa !16
  %8 = load ptr, ptr %5, align 8
  %9 = getelementptr inbounds nuw %"class.grpc_core::ChannelArgs", ptr %8, i32 0, i32 0
  call void @llvm.lifetime.start.p0(i64 8, ptr %7) #3
  %10 = getelementptr inbounds nuw %class.anon.58, ptr %7, i32 0, i32 0
  store ptr %2, ptr %10, align 8, !tbaa !16
  call void @"_ZNK9grpc_core3AVLINS_21RefCountedStringValueENS_11ChannelArgs5ValueEE7ForEachIZNKS2_25FuzzingReferenceUnionWithES2_E3$_0EEvOT_"(ptr noundef nonnull align 8 dereferenceable(8) %9, ptr noundef nonnull align 8 dereferenceable(8) %7)
  call void @llvm.lifetime.end.p0(i64 8, ptr %7) #3
  call void @_ZN9grpc_core11ChannelArgsC1EOS0_(ptr noundef nonnull align 8 dereferenceable(8) %0, ptr noundef nonnull align 8 dereferenceable(8) %2) #3
  ret void
}