; Function Attrs: mustprogress uwtable
define void @_ZNK9grpc_core11ChannelArgs25FuzzingReferenceUnionWithES0_(ptr dead_on_unwind noalias writable sret(%"class.grpc_core::ChannelArgs") align 8 %0, ptr noundef nonnull readonly align 8 captures(none) dereferenceable(8) %1, ptr noundef %2) local_unnamed_addr #9 align 2 {
  %4 = alloca %class.anon.58, align 8
  call void @llvm.lifetime.start.p0(i64 8, ptr nonnull %4) #37
  store ptr %2, ptr %4, align 8, !tbaa !161
  %.val = load ptr, ptr %1, align 8, !tbaa !21
  call fastcc void @"_ZN9grpc_core3AVLINS_21RefCountedStringValueENS_11ChannelArgs5ValueEE11ForEachImplIZNKS2_25FuzzingReferenceUnionWithES2_E3$_0EEvPKNS4_4NodeEOT_"(ptr noundef %.val, ptr noundef nonnull align 8 dereferenceable(8) %4)
  call void @llvm.lifetime.end.p0(i64 8, ptr nonnull %4) #37
  call void @_ZN9grpc_core11ChannelArgsC1EOS0_(ptr noundef nonnull align 8 dereferenceable(8) %0, ptr noundef nonnull align 8 dereferenceable(8) %2) #37
  ret void
}